target datalayout = "e-m:e-p270:32:32-p271:32:32-p272:64:64-i64:64-i128:128-f80:128-n8:16:32:64-S128"
target triple = "x86_64-pc-linux-gnu"

%struct.CodingUnit = type { i32, i32, i32, i32, i32, i32, i32, i8, i8, i8, i8, i32, i32, i8, i8, i8, i8, i8, i32, i32, i32, i32, i32, i32, [3 x i32], [3 x i32], %struct.anon.3, [4 x i8], [3 x %struct.Palette], [4 x i8], %struct.PredictionUnit, ptr }
%struct.anon.3 = type { ptr, ptr }
%struct.Palette = type { i8, [63 x i16] }
%struct.PredictionUnit = type { i8, i8, i8, i8, i8, i8, [2 x %struct.MvField], i32, %struct.MotionInfo, i8, i8, [2 x [16 x i16]], [2 x [16 x i16]], [2 x i32], [4 x i8] }
%struct.MvField = type { [2 x %struct.Mv], [2 x i8], i8, i8, i8, i8 }
%struct.Mv = type { i32, i32 }
%struct.MotionInfo = type { i32, [2 x i8], i8, i8, i32, [2 x [3 x %struct.Mv]], i32, i32 }

@ff_log2_tab = external constant [256 x i8], align 16

; Function Attrs: alwaysinline nounwind willreturn memory(none) uwtable
define internal i32 @ff_log2_c(i32 noundef %0) #4 {
  %2 = alloca i32, align 4
  %3 = alloca i32, align 4
  store i32 %0, ptr %2, align 4, !tbaa !4
  call void @llvm.lifetime.start.p0(i64 4, ptr %3) #6
  store i32 0, ptr %3, align 4, !tbaa !4
  %4 = load i32, ptr %2, align 4, !tbaa !4
  %5 = and i32 %4, -65536
  %6 = icmp ne i32 %5, 0
  br i1 %6, label %7, label %12

7:                                                ; preds = %1
  %8 = load i32, ptr %2, align 4, !tbaa !4
  %9 = lshr i32 %8, 16
  store i32 %9, ptr %2, align 4, !tbaa !4
  %10 = load i32, ptr %3, align 4, !tbaa !4
  %11 = add nsw i32 %10, 16
  store i32 %11, ptr %3, align 4, !tbaa !4
  br label %12

12:                                               ; preds = %7, %1
  %13 = load i32, ptr %2, align 4, !tbaa !4
  %14 = and i32 %13, 65280
  %15 = icmp ne i32 %14, 0
  br i1 %15, label %16, label %21

16:                                               ; preds = %12
  %17 = load i32, ptr %2, align 4, !tbaa !4
  %18 = lshr i32 %17, 8
  store i32 %18, ptr %2, align 4, !tbaa !4
  %19 = load i32, ptr %3, align 4, !tbaa !4
  %20 = add nsw i32 %19, 8
  store i32 %20, ptr %3, align 4, !tbaa !4
  br label %21

21:                                               ; preds = %16, %12
  %22 = load i32, ptr %2, align 4, !tbaa !4
  %23 = zext i32 %22 to i64
  %24 = getelementptr inbounds nuw [256 x i8], ptr @ff_log2_tab, i64 0, i64 %23
  %25 = load i8, ptr %24, align 1, !tbaa !8
  %26 = zext i8 %25 to i32
  %27 = load i32, ptr %3, align 4, !tbaa !4
  %28 = add nsw i32 %27, %26
  store i32 %28, ptr %3, align 4, !tbaa !4
  %29 = load i32, ptr %3, align 4, !tbaa !4
  call void @llvm.lifetime.end.p0(i64 4, ptr %3) #6
  ret i32 %29
}

; Function Attrs: nounwind uwtable
define i32 @ff_vvc_wide_angle_mode_mapping(ptr noundef %0, i32 noundef %1, i32 noundef %2, i32 noundef %3, i32 noundef %4) #0 {
  %6 = alloca ptr, align 8
  %7 = alloca i32, align 4
  %8 = alloca i32, align 4
  %9 = alloca i32, align 4
  %10 = alloca i32, align 4
  %11 = alloca i32, align 4
  %12 = alloca i32, align 4
  %13 = alloca i32, align 4
  %14 = alloca i32, align 4
  %15 = alloca i32, align 4
  store ptr %0, ptr %6, align 8, !tbaa !107
  store i32 %1, ptr %7, align 4, !tbaa !4
  store i32 %2, ptr %8, align 4, !tbaa !4
  store i32 %3, ptr %9, align 4, !tbaa !4
  store i32 %4, ptr %10, align 4, !tbaa !4
  call void @llvm.lifetime.start.p0(i64 4, ptr %11) #6
  call void @llvm.lifetime.start.p0(i64 4, ptr %12) #6
  call void @llvm.lifetime.start.p0(i64 4, ptr %13) #6
  call void @llvm.lifetime.start.p0(i64 4, ptr %14) #6
  call void @llvm.lifetime.start.p0(i64 4, ptr %15) #6
  %16 = load ptr, ptr %6, align 8, !tbaa !107
  %17 = getelementptr inbounds nuw %struct.CodingUnit, ptr %16, i32 0, i32 18
  %18 = load i32, ptr %17, align 8, !tbaa !108
  %19 = icmp eq i32 %18, 0
  br i1 %19, label %23, label %20

20:                                               ; preds = %5
  %21 = load i32, ptr %9, align 4, !tbaa !4
  %22 = icmp ne i32 %21, 0
  br i1 %22, label %23, label %26

23:                                               ; preds = %20, %5
  %24 = load i32, ptr %7, align 4, !tbaa !4
  store i32 %24, ptr %11, align 4, !tbaa !4
  %25 = load i32, ptr %8, align 4, !tbaa !4
  store i32 %25, ptr %12, align 4, !tbaa !4
  br label %33

26:                                               ; preds = %20
  %27 = load ptr, ptr %6, align 8, !tbaa !107
  %28 = getelementptr inbounds nuw %struct.CodingUnit, ptr %27, i32 0, i32 3
  %29 = load i32, ptr %28, align 4, !tbaa !109
  store i32 %29, ptr %11, align 4, !tbaa !4
  %30 = load ptr, ptr %6, align 8, !tbaa !107
  %31 = getelementptr inbounds nuw %struct.CodingUnit, ptr %30, i32 0, i32 4
  %32 = load i32, ptr %31, align 8, !tbaa !110
  store i32 %32, ptr %12, align 4, !tbaa !4
  br label %33

33:                                               ; preds = %26, %23
  %34 = load i32, ptr %11, align 4, !tbaa !4
  %35 = call i32 @ff_log2_c(i32 noundef %34) #8
  %36 = load i32, ptr %12, align 4, !tbaa !4
  %37 = call i32 @ff_log2_c(i32 noundef %36) #8
  %38 = sub nsw i32 %35, %37
  %39 = icmp sge i32 %38, 0
  br i1 %39, label %40, label %46

40:                                               ; preds = %33
  %41 = load i32, ptr %11, align 4, !tbaa !4
  %42 = call i32 @ff_log2_c(i32 noundef %41) #8
  %43 = load i32, ptr %12, align 4, !tbaa !4
  %44 = call i32 @ff_log2_c(i32 noundef %43) #8
  %45 = sub nsw i32 %42, %44
  br label %53

46:                                               ; preds = %33
  %47 = load i32, ptr %11, align 4, !tbaa !4
  %48 = call i32 @ff_log2_c(i32 noundef %47) #8
  %49 = load i32, ptr %12, align 4, !tbaa !4
  %50 = call i32 @ff_log2_c(i32 noundef %49) #8
  %51 = sub nsw i32 %48, %50
  %52 = sub nsw i32 0, %51
  br label %53

53:                                               ; preds = %46, %40
  %54 = phi i32 [ %45, %40 ], [ %52, %46 ]
  store i32 %54, ptr %13, align 4, !tbaa !4
  %55 = load i32, ptr %13, align 4, !tbaa !4
  %56 = icmp sgt i32 %55, 1
  br i1 %56, label %57, label %61

57:                                               ; preds = %53
  %58 = load i32, ptr %13, align 4, !tbaa !4
  %59 = mul nsw i32 2, %58
  %60 = add nsw i32 8, %59
  br label %62

61:                                               ; preds = %53
  br label %62

62:                                               ; preds = %61, %57
  %63 = phi i32 [ %60, %57 ], [ 8, %61 ]
  store i32 %63, ptr %15, align 4, !tbaa !4
  %64 = load i32, ptr %13, align 4, !tbaa !4
  %65 = icmp sgt i32 %64, 1
  br i1 %65, label %66, label %70

66:                                               ; preds = %62
  %67 = load i32, ptr %13, align 4, !tbaa !4
  %68 = mul nsw i32 2, %67
  %69 = sub nsw i32 60, %68
  br label %71

70:                                               ; preds = %62
  br label %71

71:                                               ; preds = %70, %66
  %72 = phi i32 [ %69, %66 ], [ 60, %70 ]
  store i32 %72, ptr %14, align 4, !tbaa !4
  %73 = load i32, ptr %11, align 4, !tbaa !4
  %74 = load i32, ptr %12, align 4, !tbaa !4
  %75 = icmp sgt i32 %73, %74
  br i1 %75, label %76, label %86

76:                                               ; preds = %71
  %77 = load i32, ptr %10, align 4, !tbaa !4
  %78 = icmp sge i32 %77, 2
  br i1 %78, label %79, label %86

79:                                               ; preds = %76
  %80 = load i32, ptr %10, align 4, !tbaa !4
  %81 = load i32, ptr %15, align 4, !tbaa !4
  %82 = icmp slt i32 %80, %81
  br i1 %82, label %83, label %86

83:                                               ; preds = %79
  %84 = load i32, ptr %10, align 4, !tbaa !4
  %85 = add nsw i32 %84, 65
  store i32 %85, ptr %10, align 4, !tbaa !4
  br label %101

86:                                               ; preds = %79, %76, %71
  %87 = load i32, ptr %12, align 4, !tbaa !4
  %88 = load i32, ptr %11, align 4, !tbaa !4
  %89 = icmp sgt i32 %87, %88
  br i1 %89, label %90, label %100

90:                                               ; preds = %86
  %91 = load i32, ptr %10, align 4, !tbaa !4
  %92 = icmp sle i32 %91, 66
  br i1 %92, label %93, label %100

93:                                               ; preds = %90
  %94 = load i32, ptr %10, align 4, !tbaa !4
  %95 = load i32, ptr %14, align 4, !tbaa !4
  %96 = icmp sgt i32 %94, %95
  br i1 %96, label %97, label %100

97:                                               ; preds = %93
  %98 = load i32, ptr %10, align 4, !tbaa !4
  %99 = sub nsw i32 %98, 67
  store i32 %99, ptr %10, align 4, !tbaa !4
  br label %100

100:                                              ; preds = %97, %93, %90, %86
  br label %101

101:                                              ; preds = %100, %83
  %102 = load i32, ptr %10, align 4, !tbaa !4
  call void @llvm.lifetime.end.p0(i64 4, ptr %15) #6
  call void @llvm.lifetime.end.p0(i64 4, ptr %14) #6
  call void @llvm.lifetime.end.p0(i64 4, ptr %13) #6
  call void @llvm.lifetime.end.p0(i64 4, ptr %12) #6
  call void @llvm.lifetime.end.p0(i64 4, ptr %11) #6
  ret i32 %102
}