; Function Attrs: mustprogress nofree norecurse nosync nounwind willreturn memory(argmem: read) uwtable
define i32 @ff_vvc_wide_angle_mode_mapping(ptr noundef readonly captures(none) %0, i32 noundef %1, i32 noundef %2, i32 noundef %3, i32 noundef %4) local_unnamed_addr #6 {
  %6 = getelementptr inbounds nuw i8, ptr %0, i64 48
  %7 = load i32, ptr %6, align 8, !tbaa !99
  %8 = icmp eq i32 %7, 0
  %9 = icmp ne i32 %3, 0
  %or.cond = or i1 %9, %8
  br i1 %or.cond, label %15, label %10

10:                                               ; preds = %5
  %11 = getelementptr inbounds nuw i8, ptr %0, i64 12
  %12 = load i32, ptr %11, align 4, !tbaa !100
  %13 = getelementptr inbounds nuw i8, ptr %0, i64 16
  %14 = load i32, ptr %13, align 8, !tbaa !101
  br label %15

15:                                               ; preds = %5, %10
  %.034 = phi i32 [ %14, %10 ], [ %2, %5 ]
  %.033 = phi i32 [ %12, %10 ], [ %1, %5 ]
  %.not.i38 = icmp ult i32 %.033, 65536
  %16 = lshr i32 %.033, 16
  %spec.select.i39 = select i1 %.not.i38, i32 %.033, i32 %16
  %spec.select12.i40 = select i1 %.not.i38, i32 0, i32 16
  %.not11.i41 = icmp samesign ult i32 %spec.select.i39, 256
  %17 = lshr i32 %spec.select.i39, 8
  %18 = or disjoint i32 %spec.select12.i40, 8
  %.110.i42 = select i1 %.not11.i41, i32 %spec.select.i39, i32 %17
  %.1.i43 = select i1 %.not11.i41, i32 %spec.select12.i40, i32 %18
  %19 = zext nneg i32 %.110.i42 to i64
  %20 = getelementptr inbounds nuw [256 x i8], ptr @ff_log2_tab, i64 0, i64 %19
  %21 = load i8, ptr %20, align 1, !tbaa !4
  %22 = zext i8 %21 to i32
  %.not.i = icmp ult i32 %.034, 65536
  %23 = lshr i32 %.034, 16
  %spec.select.i = select i1 %.not.i, i32 %.034, i32 %23
  %spec.select12.i.neg = select i1 %.not.i, i32 0, i32 -16
  %.not11.i = icmp samesign ult i32 %spec.select.i, 256
  %24 = lshr i32 %spec.select.i, 8
  %.neg45 = add nsw i32 %spec.select12.i.neg, -8
  %.110.i = select i1 %.not11.i, i32 %spec.select.i, i32 %24
  %.1.i.neg46 = select i1 %.not11.i, i32 %spec.select12.i.neg, i32 %.neg45
  %25 = zext nneg i32 %.110.i to i64
  %26 = getelementptr inbounds nuw [256 x i8], ptr @ff_log2_tab, i64 0, i64 %25
  %27 = load i8, ptr %26, align 1, !tbaa !4
  %28 = zext i8 %27 to i32
  %.neg44 = sub nsw i32 %22, %28
  %29 = add nsw i32 %.neg44, %.1.i.neg46
  %30 = add nsw i32 %29, %.1.i43
  %31 = tail call i32 @llvm.abs.i32(i32 %30, i1 true)
  %32 = icmp samesign ugt i32 %31, 1
  %33 = shl nuw nsw i32 %31, 1
  %34 = sub nsw i32 60, %33
  %35 = select i1 %32, i32 %34, i32 60
  %36 = icmp sgt i32 %.033, %.034
  %37 = icmp sgt i32 %4, 1
  %or.cond3 = and i1 %37, %36
  br i1 %or.cond3, label %38, label %44

38:                                               ; preds = %15
  %39 = add nuw nsw i32 %33, 8
  %40 = select i1 %32, i32 %39, i32 8
  %41 = icmp samesign ult i32 %4, %40
  br i1 %41, label %42, label %44

42:                                               ; preds = %38
  %43 = add nuw nsw i32 %4, 65
  br label %49

44:                                               ; preds = %38, %15
  %45 = icmp sgt i32 %.034, %.033
  %46 = icmp slt i32 %4, 67
  %or.cond5 = and i1 %46, %45
  %47 = icmp sgt i32 %4, %35
  %or.cond37 = select i1 %or.cond5, i1 %47, i1 false
  %48 = add nsw i32 %4, -67
  %spec.select = select i1 %or.cond37, i32 %48, i32 %4
  br label %49

49:                                               ; preds = %44, %42
  %.0 = phi i32 [ %43, %42 ], [ %spec.select, %44 ]
  ret i32 %.0
}